#include <math.h>
#include <stdio.h>
#include <stdlib.h>
#include <string.h>

int main(){
    int i,j,k=0,p;
char zf[101],jg[101];
gets(zf);
for(i=0;zf[i]!='\0';i++){
    if(zf[i]==' '){
    jg[k]=' ';
    k++;
    j=i+1;
    while(zf[j]==' '){j++;}
    i=j;}
    jg[k]=zf[i];
    k++;    
}jg[k]='\0';
printf("%s",jg);
return 0;}
